target datalayout = "e-m:e-p270:32:32-p271:32:32-p272:64:64-i64:64-i128:128-f80:128-n8:16:32:64-S128"
target triple = "x86_64-pc-linux-gnu"

%struct.DCHCacheEntry = type { [120 x %struct.FormatNode], [120 x i8], i8, i8, i32 }
%struct.FormatNode = type { i8, [5 x i8], i8, ptr }

; Function Attrs: nounwind uwtable
define dso_local zeroext i1 @datetime_format_has_tz(ptr noundef %0) #0 {
  %2 = alloca ptr, align 8
  %3 = alloca i8, align 1
  %4 = alloca i32, align 4
  %5 = alloca i32, align 4
  %6 = alloca ptr, align 8
  %7 = alloca ptr, align 8
  store ptr %0, ptr %2, align 8
  call void @llvm.lifetime.start.p0(i64 1, ptr %3) #11
  call void @llvm.lifetime.start.p0(i64 4, ptr %4) #11
  %8 = load ptr, ptr %2, align 8
  %9 = call i64 @strlen(ptr noundef %8) #13
  %10 = trunc i64 %9 to i32
  store i32 %10, ptr %4, align 4
  call void @llvm.lifetime.start.p0(i64 4, ptr %5) #11
  call void @llvm.lifetime.start.p0(i64 8, ptr %6) #11
  %11 = load i32, ptr %4, align 4
  %12 = sext i32 %11 to i64
  %13 = icmp ugt i64 %12, 119
  br i1 %13, label %14, label %22

14:                                               ; preds = %1
  store i8 0, ptr %3, align 1
  %15 = load i32, ptr %4, align 4
  %16 = add i32 %15, 1
  %17 = sext i32 %16 to i64
  %18 = mul i64 %17, 16
  %19 = call ptr @palloc(i64 noundef %18)
  store ptr %19, ptr %6, align 8
  %20 = load ptr, ptr %6, align 8
  %21 = load ptr, ptr %2, align 8
  call void @parse_format(ptr noundef %20, ptr noundef %21, ptr noundef @DCH_keywords, ptr noundef @DCH_suff, ptr noundef @DCH_index, i32 noundef 1, ptr noundef null)
  br label %28

22:                                               ; preds = %1
  call void @llvm.lifetime.start.p0(i64 8, ptr %7) #11
  %23 = load ptr, ptr %2, align 8
  %24 = call ptr @DCH_cache_fetch(ptr noundef %23, i1 noundef zeroext false)
  store ptr %24, ptr %7, align 8
  store i8 1, ptr %3, align 1
  %25 = load ptr, ptr %7, align 8
  %26 = getelementptr inbounds nuw %struct.DCHCacheEntry, ptr %25, i32 0, i32 0
  %27 = getelementptr inbounds [120 x %struct.FormatNode], ptr %26, i64 0, i64 0
  store ptr %27, ptr %6, align 8
  call void @llvm.lifetime.end.p0(i64 8, ptr %7) #11
  br label %28

28:                                               ; preds = %22, %14
  %29 = load ptr, ptr %6, align 8
  %30 = call i32 @DCH_datetime_type(ptr noundef %29)
  store i32 %30, ptr %5, align 4
  %31 = load i8, ptr %3, align 1, !range !4, !noundef !5
  %32 = trunc i8 %31 to i1
  br i1 %32, label %35, label %33

33:                                               ; preds = %28
  %34 = load ptr, ptr %6, align 8
  call void @pfree(ptr noundef %34)
  br label %35

35:                                               ; preds = %33, %28
  %36 = load i32, ptr %5, align 4
  %37 = and i32 %36, 4
  %38 = icmp ne i32 %37, 0
  call void @llvm.lifetime.end.p0(i64 8, ptr %6) #11
  call void @llvm.lifetime.end.p0(i64 4, ptr %5) #11
  call void @llvm.lifetime.end.p0(i64 4, ptr %4) #11
  call void @llvm.lifetime.end.p0(i64 1, ptr %3) #11
  ret i1 %38
}