; Function Attrs: nounwind uwtable
define dso_local zeroext i1 @datetime_format_has_tz(ptr noundef %0) local_unnamed_addr #0 {
  %2 = tail call i64 @strlen(ptr noundef nonnull dereferenceable(1) %0) #19
  %3 = trunc i64 %2 to i32
  %4 = icmp ult i32 %3, 120
  br i1 %4, label %.thread, label %7

.thread:                                          ; preds = %1
  %5 = tail call fastcc ptr @DCH_cache_fetch(ptr noundef nonnull %0, i1 noundef zeroext false)
  %6 = tail call fastcc i32 @DCH_datetime_type(ptr noundef %5)
  br label %12

7:                                                ; preds = %1
  %8 = shl i64 %2, 32
  %sext = add i64 %8, 4294967296
  %9 = ashr exact i64 %sext, 28
  %10 = tail call ptr @palloc(i64 noundef %9) #18
  tail call fastcc void @parse_format(ptr noundef %10, ptr noundef nonnull %0, ptr noundef nonnull @DCH_keywords, ptr noundef nonnull @DCH_suff, ptr noundef nonnull @DCH_index, i32 noundef 1, ptr noundef null)
  %11 = tail call fastcc i32 @DCH_datetime_type(ptr noundef %10)
  tail call void @pfree(ptr noundef %10) #18
  br label %12

12:                                               ; preds = %.thread, %7
  %13 = phi i32 [ %6, %.thread ], [ %11, %7 ]
  %14 = icmp samesign ugt i32 %13, 3
  ret i1 %14
}